; Function Attrs: mustprogress uwtable
define noundef zeroext i1 @_ZN6google8protobuf8internal12ExtensionSet10ParseFieldEjPNS0_2io16CodedInputStreamEPNS1_15ExtensionFinderEPNS1_12FieldSkipperE(ptr nocapture noundef nonnull align 8 dereferenceable(24) %0, i32 noundef %1, ptr noundef %2, ptr noundef %3, ptr noundef %4) local_unnamed_addr #8 align 2 {
  %6 = alloca i8, align 1
  %7 = alloca %"struct.google::protobuf::internal::ExtensionInfo", align 8
  %8 = lshr i32 %1, 3
  %9 = and i32 %1, 7
  %10 = call noundef zeroext i1 @_ZN6google8protobuf8internal12ExtensionSet32FindExtensionInfoFromFieldNumberEiiPNS1_15ExtensionFinderEPNS1_13ExtensionInfoEPb(ptr nonnull readnone align 8 poison, i32 noundef %9, i32 noundef %8, ptr noundef %3, ptr noundef nonnull %7, ptr noundef nonnull writeonly %6)
  br i1 %10, label %16, label %11

11:                                               ; preds = %5
  %12 = load ptr, ptr %4, align 8
  %13 = getelementptr inbounds i8, ptr %12, i64 16
  %14 = load ptr, ptr %13, align 8
  %15 = call noundef zeroext i1 %14(ptr noundef nonnull align 8 dereferenceable(8) %4, ptr noundef %2, i32 noundef %1)
  br label %20

16:                                               ; preds = %5
  %17 = load i8, ptr %6, align 1
  %18 = trunc i8 %17 to i1
  %19 = call noundef zeroext i1 @_ZN6google8protobuf8internal12ExtensionSet27ParseFieldWithExtensionInfoEibRKNS1_13ExtensionInfoEPNS0_2io16CodedInputStreamEPNS1_12FieldSkipperE(ptr noundef nonnull align 8 dereferenceable(24) %0, i32 noundef %8, i1 noundef zeroext %18, ptr noundef nonnull align 8 dereferenceable(32) %7, ptr noundef %2, ptr noundef %4)
  br label %20

20:                                               ; preds = %16, %11
  %.0 = phi i1 [ %19, %16 ], [ %15, %11 ]
  ret i1 %.0
}